; Function Attrs: mustprogress nofree norecurse nosync nounwind willreturn memory(argmem: write) uwtable
define void @zend_stack_init(ptr nocapture noundef writeonly %0, i32 noundef %1) local_unnamed_addr #0 {
  store i32 %1, ptr %0, align 8
  %3 = getelementptr inbounds i8, ptr %0, i64 4
  store i32 0, ptr %3, align 4
  %4 = getelementptr inbounds i8, ptr %0, i64 8
  store i32 0, ptr %4, align 8
  %5 = getelementptr inbounds i8, ptr %0, i64 16
  store ptr null, ptr %5, align 8
  ret void
}